target datalayout = "e-m:e-p270:32:32-p271:32:32-p272:64:64-i64:64-i128:128-f80:128-n8:16:32:64-S128"
target triple = "x86_64-pc-linux-gnu"

%struct._packet_info = type { ptr, ptr, i32, i32, %struct.nstime_t, %struct.nstime_t, %struct.nstime_t, i32, ptr, ptr, ptr, ptr, %struct._address, %struct._address, %struct._address, %struct._address, %struct._address, %struct._address, i32, ptr, i32, %struct.anon, i32, i32, i32, i32, ptr, i32, ptr, ptr, i16, i16, i32, i32, i16, i32, i32, ptr, ptr, ptr, i8, i8, i16, i16, i16, i32, i16, i16, ptr, ptr, ptr, ptr, ptr, i32 }
%struct.nstime_t = type { i64, i32 }
%struct._address = type { i32, i32, ptr, ptr }
%struct.anon = type { i8, [3 x i8] }
%struct._proto_node = type { ptr, ptr, ptr, ptr, ptr, ptr }
%struct.field_info = type { ptr, i32, i32, i32, i32, i32, i32, ptr, ptr, ptr, i32, i32 }

@.str.206 = private unnamed_addr constant [5 x i8] c"Data\00", align 1
@hf_printerdata_size = internal global i32 0, align 4
@hf_printerdata_data = internal global i32 0, align 4
@hf_printerdata_data_dword = internal global i32 0, align 4
@hf_printerdata_data_sz = internal global i32 0, align 4
@ett_printerdata_data = internal global i32 0, align 4
@.str.757 = private unnamed_addr constant [5 x i8] c": %s\00", align 1
@.str.1232 = private unnamed_addr constant [6 x i8] c" = %s\00", align 1
@.str.1233 = private unnamed_addr constant [9 x i8] c": 0x%08x\00", align 1
@.str.1234 = private unnamed_addr constant [10 x i8] c" = 0x%08x\00", align 1
@.str.1235 = private unnamed_addr constant [17 x i8] c" = <binary data>\00", align 1

; Function Attrs: nounwind uwtable
define internal void @proto_item_set_hidden(ptr noundef %0) #0 {
  %2 = alloca ptr, align 8
  store ptr %0, ptr %2, align 8
  %3 = load ptr, ptr %2, align 8
  %4 = icmp ne ptr %3, null
  br i1 %4, label %5, label %24

5:                                                ; preds = %1
  br label %6

6:                                                ; preds = %5
  %7 = load ptr, ptr %2, align 8
  %8 = getelementptr inbounds %struct._proto_node, ptr %7, i32 0, i32 4
  %9 = load ptr, ptr %8, align 8
  %10 = icmp ne ptr %9, null
  br i1 %10, label %11, label %22

11:                                               ; preds = %6
  %12 = load ptr, ptr %2, align 8
  %13 = getelementptr inbounds %struct._proto_node, ptr %12, i32 0, i32 4
  %14 = load ptr, ptr %13, align 8
  %15 = getelementptr inbounds %struct.field_info, ptr %14, i32 0, i32 6
  %16 = load i32, ptr %15, align 4
  %17 = or i32 %16, 1
  %18 = load ptr, ptr %2, align 8
  %19 = getelementptr inbounds %struct._proto_node, ptr %18, i32 0, i32 4
  %20 = load ptr, ptr %19, align 8
  %21 = getelementptr inbounds %struct.field_info, ptr %20, i32 0, i32 6
  store i32 %17, ptr %21, align 4
  br label %22

22:                                               ; preds = %11, %6
  br label %23

23:                                               ; preds = %22
  br label %24

24:                                               ; preds = %23, %1
  ret void
}

; Function Attrs: nounwind uwtable
define internal i32 @dissect_printerdata_data(ptr noundef %0, i32 noundef %1, ptr noundef %2, ptr noundef %3, ptr noundef %4, ptr noundef %5, i32 noundef %6) #0 {
  %8 = alloca ptr, align 8
  %9 = alloca i32, align 4
  %10 = alloca ptr, align 8
  %11 = alloca ptr, align 8
  %12 = alloca ptr, align 8
  %13 = alloca ptr, align 8
  %14 = alloca i32, align 4
  %15 = alloca ptr, align 8
  %16 = alloca ptr, align 8
  %17 = alloca ptr, align 8
  %18 = alloca i32, align 4
  %19 = alloca ptr, align 8
  %20 = alloca i32, align 4
  store ptr %0, ptr %8, align 8
  store i32 %1, ptr %9, align 4
  store ptr %2, ptr %10, align 8
  store ptr %3, ptr %11, align 8
  store ptr %4, ptr %12, align 8
  store ptr %5, ptr %13, align 8
  store i32 %6, ptr %14, align 4
  %21 = load ptr, ptr %11, align 8
  %22 = load ptr, ptr %8, align 8
  %23 = load i32, ptr %9, align 4
  %24 = load i32, ptr @ett_printerdata_data, align 4
  %25 = call ptr @proto_tree_add_subtree(ptr noundef %21, ptr noundef %22, i32 noundef %23, i32 noundef 0, i32 noundef %24, ptr noundef %15, ptr noundef @.str.206)
  store ptr %25, ptr %17, align 8
  %26 = load ptr, ptr %8, align 8
  %27 = load i32, ptr %9, align 4
  %28 = load ptr, ptr %10, align 8
  %29 = load ptr, ptr %17, align 8
  %30 = load ptr, ptr %12, align 8
  %31 = load ptr, ptr %13, align 8
  %32 = load i32, ptr @hf_printerdata_size, align 4
  %33 = call i32 @dissect_ndr_uint32(ptr noundef %26, i32 noundef %27, ptr noundef %28, ptr noundef %29, ptr noundef %30, ptr noundef %31, i32 noundef %32, ptr noundef %18)
  store i32 %33, ptr %9, align 4
  %34 = load i32, ptr %18, align 4
  %35 = icmp ne i32 %34, 0
  br i1 %35, label %36, label %93

36:                                               ; preds = %7
  %37 = load ptr, ptr %8, align 8
  %38 = load i32, ptr %9, align 4
  %39 = load ptr, ptr %10, align 8
  %40 = load ptr, ptr %17, align 8
  %41 = load ptr, ptr %12, align 8
  %42 = load ptr, ptr %13, align 8
  %43 = load i32, ptr @hf_printerdata_data, align 4
  %44 = load i32, ptr %18, align 4
  %45 = call i32 @dissect_ndr_uint8s(ptr noundef %37, i32 noundef %38, ptr noundef %39, ptr noundef %40, ptr noundef %41, ptr noundef %42, i32 noundef %43, i32 noundef %44, ptr noundef null)
  store i32 %45, ptr %9, align 4
  %46 = load i32, ptr %14, align 4
  switch i32 %46, label %91 [
    i32 1, label %47
    i32 4, label %66
    i32 3, label %87
  ]

47:                                               ; preds = %36
  %48 = load ptr, ptr %11, align 8
  %49 = load i32, ptr @hf_printerdata_data_sz, align 4
  %50 = load ptr, ptr %8, align 8
  %51 = load i32, ptr %9, align 4
  %52 = load i32, ptr %18, align 4
  %53 = sub i32 %51, %52
  %54 = load i32, ptr %18, align 4
  %55 = load ptr, ptr %10, align 8
  %56 = getelementptr inbounds %struct._packet_info, ptr %55, i32 0, i32 50
  %57 = load ptr, ptr %56, align 8
  %58 = call ptr @proto_tree_add_item_ret_string(ptr noundef %48, i32 noundef %49, ptr noundef %50, i32 noundef %53, i32 noundef %54, i32 noundef -2147483644, ptr noundef %57, ptr noundef %19)
  store ptr %58, ptr %16, align 8
  %59 = load ptr, ptr %16, align 8
  call void @proto_item_set_hidden(ptr noundef %59)
  %60 = load ptr, ptr %15, align 8
  %61 = load ptr, ptr %19, align 8
  call void (ptr, ptr, ...) @proto_item_append_text(ptr noundef %60, ptr noundef @.str.757, ptr noundef %61)
  %62 = load ptr, ptr %10, align 8
  %63 = getelementptr inbounds %struct._packet_info, ptr %62, i32 0, i32 1
  %64 = load ptr, ptr %63, align 8
  %65 = load ptr, ptr %19, align 8
  call void (ptr, i32, ptr, ...) @col_append_fstr(ptr noundef %64, i32 noundef 25, ptr noundef @.str.1232, ptr noundef %65)
  br label %92

66:                                               ; preds = %36
  %67 = load ptr, ptr %8, align 8
  %68 = load i32, ptr %9, align 4
  %69 = load i32, ptr %18, align 4
  %70 = sub i32 %68, %69
  %71 = call i32 @tvb_get_letohl(ptr noundef %67, i32 noundef %70)
  store i32 %71, ptr %20, align 4
  %72 = load ptr, ptr %15, align 8
  %73 = load i32, ptr %20, align 4
  call void (ptr, ptr, ...) @proto_item_append_text(ptr noundef %72, ptr noundef @.str.1233, i32 noundef %73)
  %74 = load ptr, ptr %10, align 8
  %75 = getelementptr inbounds %struct._packet_info, ptr %74, i32 0, i32 1
  %76 = load ptr, ptr %75, align 8
  %77 = load i32, ptr %20, align 4
  call void (ptr, i32, ptr, ...) @col_append_fstr(ptr noundef %76, i32 noundef 25, ptr noundef @.str.1234, i32 noundef %77)
  %78 = load ptr, ptr %11, align 8
  %79 = load i32, ptr @hf_printerdata_data_dword, align 4
  %80 = load ptr, ptr %8, align 8
  %81 = load i32, ptr %9, align 4
  %82 = load i32, ptr %18, align 4
  %83 = sub i32 %81, %82
  %84 = load i32, ptr %20, align 4
  %85 = call ptr @proto_tree_add_uint(ptr noundef %78, i32 noundef %79, ptr noundef %80, i32 noundef %83, i32 noundef 4, i32 noundef %84)
  store ptr %85, ptr %16, align 8
  %86 = load ptr, ptr %16, align 8
  call void @proto_item_set_hidden(ptr noundef %86)
  br label %92

87:                                               ; preds = %36
  %88 = load ptr, ptr %10, align 8
  %89 = getelementptr inbounds %struct._packet_info, ptr %88, i32 0, i32 1
  %90 = load ptr, ptr %89, align 8
  call void @col_append_str(ptr noundef %90, i32 noundef 25, ptr noundef @.str.1235)
  br label %92

91:                                               ; preds = %36
  br label %92

92:                                               ; preds = %91, %87, %66, %47
  br label %93

93:                                               ; preds = %92, %7
  %94 = load ptr, ptr %15, align 8
  %95 = load i32, ptr %18, align 4
  %96 = add i32 %95, 4
  call void @proto_item_set_len(ptr noundef %94, i32 noundef %96)
  %97 = load i32, ptr %9, align 4
  ret i32 %97
}