; Function Attrs: nounwind uwtable
define internal fastcc i32 @dissect_printerdata_data(ptr noundef %0, i32 noundef %1, ptr noundef %2, ptr noundef %3, ptr noundef %4, ptr noundef %5, i32 noundef %6) unnamed_addr #0 {
  %8 = alloca ptr, align 8
  %9 = alloca i32, align 4
  %10 = alloca ptr, align 8
  %11 = load i32, ptr @ett_printerdata_data, align 4
  %12 = call ptr @proto_tree_add_subtree(ptr noundef %3, ptr noundef %0, i32 noundef %1, i32 noundef 0, i32 noundef %11, ptr noundef nonnull %8, ptr noundef nonnull @.str.206) #5
  %13 = load i32, ptr @hf_printerdata_size, align 4
  %14 = call i32 @dissect_ndr_uint32(ptr noundef %0, i32 noundef %1, ptr noundef %2, ptr noundef %12, ptr noundef %4, ptr noundef %5, i32 noundef %13, ptr noundef nonnull %9) #5
  %15 = load i32, ptr %9, align 4
  %.not = icmp eq i32 %15, 0
  br i1 %.not, label %proto_item_set_hidden.exit36, label %16

16:                                               ; preds = %7
  %17 = load i32, ptr @hf_printerdata_data, align 4
  %18 = call i32 @dissect_ndr_uint8s(ptr noundef %0, i32 noundef %14, ptr noundef %2, ptr noundef %12, ptr noundef %4, ptr noundef %5, i32 noundef %17, i32 noundef %15, ptr noundef null) #5
  switch i32 %6, label %proto_item_set_hidden.exit36 [
    i32 1, label %19
    i32 4, label %38
    i32 3, label %56
  ]

19:                                               ; preds = %16
  %20 = load i32, ptr @hf_printerdata_data_sz, align 4
  %21 = load i32, ptr %9, align 4
  %22 = sub i32 %18, %21
  %23 = getelementptr inbounds nuw i8, ptr %2, i64 408
  %24 = load ptr, ptr %23, align 8
  %25 = call ptr @proto_tree_add_item_ret_string(ptr noundef %3, i32 noundef %20, ptr noundef %0, i32 noundef %22, i32 noundef %21, i32 noundef -2147483644, ptr noundef %24, ptr noundef nonnull %10) #5
  %.not.i = icmp eq ptr %25, null
  br i1 %.not.i, label %proto_item_set_hidden.exit, label %26

26:                                               ; preds = %19
  %27 = getelementptr inbounds nuw i8, ptr %25, i64 32
  %28 = load ptr, ptr %27, align 8
  %.not5.i = icmp eq ptr %28, null
  br i1 %.not5.i, label %proto_item_set_hidden.exit, label %29

29:                                               ; preds = %26
  %30 = getelementptr inbounds nuw i8, ptr %28, i64 28
  %31 = load i32, ptr %30, align 4
  %32 = or i32 %31, 1
  store i32 %32, ptr %30, align 4
  br label %proto_item_set_hidden.exit

proto_item_set_hidden.exit:                       ; preds = %19, %26, %29
  %33 = load ptr, ptr %8, align 8
  %34 = load ptr, ptr %10, align 8
  call void (ptr, ptr, ...) @proto_item_append_text(ptr noundef %33, ptr noundef nonnull @.str.757, ptr noundef %34) #5
  %35 = getelementptr inbounds nuw i8, ptr %2, i64 8
  %36 = load ptr, ptr %35, align 8
  %37 = load ptr, ptr %10, align 8
  call void (ptr, i32, ptr, ...) @col_append_fstr(ptr noundef %36, i32 noundef 25, ptr noundef nonnull @.str.1232, ptr noundef %37) #5
  br label %proto_item_set_hidden.exit36

38:                                               ; preds = %16
  %39 = load i32, ptr %9, align 4
  %40 = sub i32 %18, %39
  %41 = call i32 @tvb_get_letohl(ptr noundef %0, i32 noundef %40) #5
  %42 = load ptr, ptr %8, align 8
  call void (ptr, ptr, ...) @proto_item_append_text(ptr noundef %42, ptr noundef nonnull @.str.1233, i32 noundef %41) #5
  %43 = getelementptr inbounds nuw i8, ptr %2, i64 8
  %44 = load ptr, ptr %43, align 8
  call void (ptr, i32, ptr, ...) @col_append_fstr(ptr noundef %44, i32 noundef 25, ptr noundef nonnull @.str.1234, i32 noundef %41) #5
  %45 = load i32, ptr @hf_printerdata_data_dword, align 4
  %46 = load i32, ptr %9, align 4
  %47 = sub i32 %18, %46
  %48 = call ptr @proto_tree_add_uint(ptr noundef %3, i32 noundef %45, ptr noundef %0, i32 noundef %47, i32 noundef 4, i32 noundef %41) #5
  %.not.i34 = icmp eq ptr %48, null
  br i1 %.not.i34, label %proto_item_set_hidden.exit36, label %49

49:                                               ; preds = %38
  %50 = getelementptr inbounds nuw i8, ptr %48, i64 32
  %51 = load ptr, ptr %50, align 8
  %.not5.i35 = icmp eq ptr %51, null
  br i1 %.not5.i35, label %proto_item_set_hidden.exit36, label %52

52:                                               ; preds = %49
  %53 = getelementptr inbounds nuw i8, ptr %51, i64 28
  %54 = load i32, ptr %53, align 4
  %55 = or i32 %54, 1
  store i32 %55, ptr %53, align 4
  br label %proto_item_set_hidden.exit36

56:                                               ; preds = %16
  %57 = getelementptr inbounds nuw i8, ptr %2, i64 8
  %58 = load ptr, ptr %57, align 8
  call void @col_append_str(ptr noundef %58, i32 noundef 25, ptr noundef nonnull @.str.1235) #5
  br label %proto_item_set_hidden.exit36

proto_item_set_hidden.exit36:                     ; preds = %52, %49, %38, %proto_item_set_hidden.exit, %56, %16, %7
  %.0 = phi i32 [ %18, %16 ], [ %18, %56 ], [ %18, %proto_item_set_hidden.exit ], [ %14, %7 ], [ %18, %38 ], [ %18, %49 ], [ %18, %52 ]
  %59 = load ptr, ptr %8, align 8
  %60 = load i32, ptr %9, align 4
  %61 = add i32 %60, 4
  call void @proto_item_set_len(ptr noundef %59, i32 noundef %61) #5
  ret i32 %.0
}